; ModuleID = '53/631.c'
source_filename = "53/631.c"
target datalayout = "e-m:e-p270:32:32-p271:32:32-p272:64:64-i64:64-f80:128-n8:16:32:64-S128"
target triple = "x86_64-pc-linux-gnu"

@.str = private unnamed_addr constant [3 x i8] c"%d\00", align 1
@.str.1 = private unnamed_addr constant [4 x i8] c"%d,\00", align 1

; Function Attrs: noinline nounwind uwtable
define dso_local void @main() #0 {
  %1 = alloca i32, align 4
  %2 = alloca [300 x i32], align 16
  %3 = alloca [300 x i32], align 16
  %4 = alloca i32*, align 8
  %5 = alloca i32*, align 8
  %6 = alloca i32, align 4
  %7 = alloca i32, align 4
  %8 = alloca i32, align 4
  %9 = alloca i32, align 4
  %10 = alloca i32, align 4
  store i32 0, i32* %8, align 4
  store i32 0, i32* %9, align 4
  %11 = call i32 (i8*, ...) @__isoc99_scanf(i8* getelementptr inbounds ([3 x i8], [3 x i8]* @.str, i64 0, i64 0), i32* %1)
  %12 = getelementptr inbounds [300 x i32], [300 x i32]* %2, i64 0, i64 0
  store i32* %12, i32** %4, align 8
  store i32 0, i32* %6, align 4
  br label %13

13:                                               ; preds = %22, %0
  %14 = load i32, i32* %6, align 4
  %15 = load i32, i32* %1, align 4
  %16 = icmp slt i32 %14, %15
  br i1 %16, label %17, label %25

17:                                               ; preds = %13
  %18 = load i32*, i32** %4, align 8
  %19 = call i32 (i8*, ...) @__isoc99_scanf(i8* getelementptr inbounds ([3 x i8], [3 x i8]* @.str, i64 0, i64 0), i32* %18)
  %20 = load i32*, i32** %4, align 8
  %21 = getelementptr inbounds i32, i32* %20, i32 1
  store i32* %21, i32** %4, align 8
  br label %22

22:                                               ; preds = %17
  %23 = load i32, i32* %6, align 4
  %24 = add nsw i32 %23, 1
  store i32 %24, i32* %6, align 4
  br label %13

25:                                               ; preds = %13
  %26 = getelementptr inbounds [300 x i32], [300 x i32]* %2, i64 0, i64 0
  store i32* %26, i32** %4, align 8
  %27 = getelementptr inbounds [300 x i32], [300 x i32]* %3, i64 0, i64 0
  store i32* %27, i32** %5, align 8
  %28 = load i32*, i32** %4, align 8
  %29 = load i32, i32* %28, align 4
  %30 = load i32*, i32** %5, align 8
  store i32 %29, i32* %30, align 4
  %31 = load i32*, i32** %5, align 8
  %32 = getelementptr inbounds i32, i32* %31, i32 1
  store i32* %32, i32** %5, align 8
  store i32 1, i32* %6, align 4
  br label %33

33:                                               ; preds = %72, %25
  %34 = load i32, i32* %6, align 4
  %35 = load i32, i32* %1, align 4
  %36 = icmp slt i32 %34, %35
  br i1 %36, label %37, label %75

37:                                               ; preds = %33
  %38 = load i32*, i32** %4, align 8
  %39 = getelementptr inbounds i32, i32* %38, i32 1
  store i32* %39, i32** %4, align 8
  store i32 0, i32* %8, align 4
  %40 = load i32*, i32** %4, align 8
  %41 = load i32, i32* %40, align 4
  store i32 %41, i32* %10, align 4
  %42 = getelementptr inbounds [300 x i32], [300 x i32]* %2, i64 0, i64 0
  store i32* %42, i32** %4, align 8
  store i32 0, i32* %7, align 4
  br label %43

43:                                               ; preds = %58, %37
  %44 = load i32, i32* %7, align 4
  %45 = load i32, i32* %6, align 4
  %46 = icmp slt i32 %44, %45
  br i1 %46, label %47, label %61

47:                                               ; preds = %43
  %48 = load i32, i32* %10, align 4
  %49 = load i32*, i32** %4, align 8
  %50 = load i32, i32* %49, align 4
  %51 = icmp eq i32 %48, %50
  br i1 %51, label %52, label %55

52:                                               ; preds = %47
  %53 = load i32, i32* %8, align 4
  %54 = add nsw i32 %53, 1
  store i32 %54, i32* %8, align 4
  br label %55

55:                                               ; preds = %52, %47
  %56 = load i32*, i32** %4, align 8
  %57 = getelementptr inbounds i32, i32* %56, i32 1
  store i32* %57, i32** %4, align 8
  br label %58

58:                                               ; preds = %55
  %59 = load i32, i32* %7, align 4
  %60 = add nsw i32 %59, 1
  store i32 %60, i32* %7, align 4
  br label %43

61:                                               ; preds = %43
  %62 = load i32, i32* %8, align 4
  %63 = icmp eq i32 %62, 0
  br i1 %63, label %64, label %71

64:                                               ; preds = %61
  %65 = load i32, i32* %10, align 4
  %66 = load i32*, i32** %5, align 8
  store i32 %65, i32* %66, align 4
  %67 = load i32*, i32** %5, align 8
  %68 = getelementptr inbounds i32, i32* %67, i32 1
  store i32* %68, i32** %5, align 8
  %69 = load i32, i32* %9, align 4
  %70 = add nsw i32 %69, 1
  store i32 %70, i32* %9, align 4
  br label %71

71:                                               ; preds = %64, %61
  br label %72

72:                                               ; preds = %71
  %73 = load i32, i32* %6, align 4
  %74 = add nsw i32 %73, 1
  store i32 %74, i32* %6, align 4
  br label %33

75:                                               ; preds = %33
  %76 = getelementptr inbounds [300 x i32], [300 x i32]* %3, i64 0, i64 0
  store i32* %76, i32** %5, align 8
  store i32 0, i32* %6, align 4
  br label %77

77:                                               ; preds = %87, %75
  %78 = load i32, i32* %6, align 4
  %79 = load i32, i32* %9, align 4
  %80 = icmp slt i32 %78, %79
  br i1 %80, label %81, label %90

81:                                               ; preds = %77
  %82 = load i32*, i32** %5, align 8
  %83 = load i32, i32* %82, align 4
  %84 = call i32 (i8*, ...) @printf(i8* getelementptr inbounds ([4 x i8], [4 x i8]* @.str.1, i64 0, i64 0), i32 %83)
  %85 = load i32*, i32** %5, align 8
  %86 = getelementptr inbounds i32, i32* %85, i32 1
  store i32* %86, i32** %5, align 8
  br label %87

87:                                               ; preds = %81
  %88 = load i32, i32* %6, align 4
  %89 = add nsw i32 %88, 1
  store i32 %89, i32* %6, align 4
  br label %77

90:                                               ; preds = %77
  %91 = load i32*, i32** %5, align 8
  %92 = load i32, i32* %91, align 4
  %93 = call i32 (i8*, ...) @printf(i8* getelementptr inbounds ([3 x i8], [3 x i8]* @.str, i64 0, i64 0), i32 %92)
  ret void
}

declare dso_local i32 @__isoc99_scanf(i8*, ...) #1

declare dso_local i32 @printf(i8*, ...) #1


!llvm.module.flags = !{!0}
!llvm.ident = !{!1}

!0 = !{i32 1, !"wchar_size", i32 4}
!1 = !{!"clang version 10.0.0-4ubuntu1 "}
